target datalayout = "e-m:e-p270:32:32-p271:32:32-p272:64:64-i64:64-i128:128-f80:128-n8:16:32:64-S128"
target triple = "x86_64-pc-linux-gnu"

%"class.google::protobuf::TextFormat::Printer" = type { i32, i8, i8, i8, i8, i8, i8, i8, i64, %"class.std::unique_ptr", %"class.std::map", %"class.std::map.5", ptr }
%"class.std::unique_ptr" = type { %"struct.std::__uniq_ptr_data" }
%"struct.std::__uniq_ptr_data" = type { %"class.std::__uniq_ptr_impl" }
%"class.std::__uniq_ptr_impl" = type { %"class.std::tuple" }
%"class.std::tuple" = type { %"struct.std::_Tuple_impl" }
%"struct.std::_Tuple_impl" = type { %"struct.std::_Head_base.1" }
%"struct.std::_Head_base.1" = type { ptr }
%"class.std::map" = type { %"class.std::_Rb_tree" }
%"class.std::_Rb_tree" = type { %"struct.std::_Rb_tree<const google::protobuf::FieldDescriptor *, std::pair<const google::protobuf::FieldDescriptor *const, std::unique_ptr<const google::protobuf::TextFormat::FastFieldValuePrinter>>, std::_Select1st<std::pair<const google::protobuf::FieldDescriptor *const, std::unique_ptr<const google::protobuf::TextFormat::FastFieldValuePrinter>>>, std::less<const google::protobuf::FieldDescriptor *>>::_Rb_tree_impl" }
%"struct.std::_Rb_tree<const google::protobuf::FieldDescriptor *, std::pair<const google::protobuf::FieldDescriptor *const, std::unique_ptr<const google::protobuf::TextFormat::FastFieldValuePrinter>>, std::_Select1st<std::pair<const google::protobuf::FieldDescriptor *const, std::unique_ptr<const google::protobuf::TextFormat::FastFieldValuePrinter>>>, std::less<const google::protobuf::FieldDescriptor *>>::_Rb_tree_impl" = type { [8 x i8], %"struct.std::_Rb_tree_header" }
%"struct.std::_Rb_tree_header" = type { %"struct.std::_Rb_tree_node_base", i64 }
%"struct.std::_Rb_tree_node_base" = type { i32, ptr, ptr, ptr }
%"class.std::map.5" = type { %"class.std::_Rb_tree.6" }
%"class.std::_Rb_tree.6" = type { %"struct.std::_Rb_tree<const google::protobuf::Descriptor *, std::pair<const google::protobuf::Descriptor *const, std::unique_ptr<const google::protobuf::TextFormat::MessagePrinter>>, std::_Select1st<std::pair<const google::protobuf::Descriptor *const, std::unique_ptr<const google::protobuf::TextFormat::MessagePrinter>>>, std::less<const google::protobuf::Descriptor *>>::_Rb_tree_impl" }
%"struct.std::_Rb_tree<const google::protobuf::Descriptor *, std::pair<const google::protobuf::Descriptor *const, std::unique_ptr<const google::protobuf::TextFormat::MessagePrinter>>, std::_Select1st<std::pair<const google::protobuf::Descriptor *const, std::unique_ptr<const google::protobuf::TextFormat::MessagePrinter>>>, std::less<const google::protobuf::Descriptor *>>::_Rb_tree_impl" = type { [8 x i8], %"struct.std::_Rb_tree_header" }
%"struct.std::pair.63" = type <{ %"struct.std::_Rb_tree_iterator", i8, [7 x i8] }>
%"struct.std::_Rb_tree_iterator" = type { ptr }
%"struct.std::pair.65" = type { ptr, ptr }
%"struct.std::pair.67" = type { ptr, %"class.std::unique_ptr" }
%"struct.std::_Rb_tree_node.141" = type { %"struct.std::_Rb_tree_node_base", %"struct.__gnu_cxx::__aligned_membuf.142" }
%"struct.__gnu_cxx::__aligned_membuf.142" = type { [16 x i8] }

; Function Attrs: mustprogress nounwind uwtable
define linkonce_odr hidden noundef nonnull align 1 dereferenceable(1) ptr @_ZNSt10_Head_baseILm1ESt14default_deleteIKN6google8protobuf10TextFormat21FastFieldValuePrinterEELb1EE7_M_headERS7_(ptr noundef nonnull align 1 dereferenceable(1) %0) #5 comdat align 2 {
  %2 = alloca ptr, align 8
  store ptr %0, ptr %2, align 8, !tbaa !537
  %3 = load ptr, ptr %2, align 8, !tbaa !537
  ret ptr %3
}

; Function Attrs: mustprogress nounwind uwtable
define linkonce_odr hidden noundef nonnull align 8 dereferenceable(8) ptr @_ZNSt10_Head_baseILm0EPKN6google8protobuf10TextFormat21FastFieldValuePrinterELb0EE7_M_headERS6_(ptr noundef nonnull align 8 dereferenceable(8) %0) #5 comdat align 2 {
  %2 = alloca ptr, align 8
  store ptr %0, ptr %2, align 8, !tbaa !534
  %3 = load ptr, ptr %2, align 8, !tbaa !534
  %4 = getelementptr inbounds nuw %"struct.std::_Head_base.1", ptr %3, i32 0, i32 0
  ret ptr %4
}

; Function Attrs: mustprogress nounwind uwtable
define linkonce_odr hidden noundef nonnull align 1 dereferenceable(1) ptr @_ZNSt11_Tuple_implILm1EJSt14default_deleteIKN6google8protobuf10TextFormat21FastFieldValuePrinterEEEE7_M_headERS7_(ptr noundef nonnull align 1 dereferenceable(1) %0) #5 comdat align 2 {
  %2 = alloca ptr, align 8
  store ptr %0, ptr %2, align 8, !tbaa !532
  %3 = load ptr, ptr %2, align 8, !tbaa !532
  %4 = call noundef nonnull align 1 dereferenceable(1) ptr @_ZNSt10_Head_baseILm1ESt14default_deleteIKN6google8protobuf10TextFormat21FastFieldValuePrinterEELb1EE7_M_headERS7_(ptr noundef nonnull align 1 dereferenceable(1) %3) #3
  ret ptr %4
}

; Function Attrs: mustprogress nounwind uwtable
define linkonce_odr hidden noundef nonnull align 8 dereferenceable(8) ptr @_ZNSt11_Tuple_implILm0EJPKN6google8protobuf10TextFormat21FastFieldValuePrinterESt14default_deleteIS4_EEE7_M_headERS8_(ptr noundef nonnull align 8 dereferenceable(8) %0) #5 comdat align 2 {
  %2 = alloca ptr, align 8
  store ptr %0, ptr %2, align 8, !tbaa !530
  %3 = load ptr, ptr %2, align 8, !tbaa !530
  %4 = call noundef nonnull align 8 dereferenceable(8) ptr @_ZNSt10_Head_baseILm0EPKN6google8protobuf10TextFormat21FastFieldValuePrinterELb0EE7_M_headERS6_(ptr noundef nonnull align 8 dereferenceable(8) %3) #3
  ret ptr %4
}

; Function Attrs: mustprogress nounwind uwtable
define linkonce_odr hidden noundef nonnull align 1 dereferenceable(1) ptr @_ZSt12__get_helperILm1ESt14default_deleteIKN6google8protobuf10TextFormat21FastFieldValuePrinterEEJEERT0_RSt11_Tuple_implIXT_EJS7_DpT1_EE(ptr noundef nonnull align 1 dereferenceable(1) %0) #5 comdat {
  %2 = alloca ptr, align 8
  store ptr %0, ptr %2, align 8, !tbaa !532
  %3 = load ptr, ptr %2, align 8, !tbaa !532
  %4 = call noundef nonnull align 1 dereferenceable(1) ptr @_ZNSt11_Tuple_implILm1EJSt14default_deleteIKN6google8protobuf10TextFormat21FastFieldValuePrinterEEEE7_M_headERS7_(ptr noundef nonnull align 1 dereferenceable(1) %3) #3
  ret ptr %4
}

; Function Attrs: mustprogress nounwind uwtable
define linkonce_odr hidden noundef nonnull align 8 dereferenceable(8) ptr @_ZSt12__get_helperILm0EPKN6google8protobuf10TextFormat21FastFieldValuePrinterEJSt14default_deleteIS4_EEERT0_RSt11_Tuple_implIXT_EJS8_DpT1_EE(ptr noundef nonnull align 8 dereferenceable(8) %0) #5 comdat {
  %2 = alloca ptr, align 8
  store ptr %0, ptr %2, align 8, !tbaa !530
  %3 = load ptr, ptr %2, align 8, !tbaa !530
  %4 = call noundef nonnull align 8 dereferenceable(8) ptr @_ZNSt11_Tuple_implILm0EJPKN6google8protobuf10TextFormat21FastFieldValuePrinterESt14default_deleteIS4_EEE7_M_headERS8_(ptr noundef nonnull align 8 dereferenceable(8) %3) #3
  ret ptr %4
}

; Function Attrs: mustprogress nounwind uwtable
define linkonce_odr hidden noundef nonnull align 1 dereferenceable(1) ptr @_ZSt3getILm1EJPKN6google8protobuf10TextFormat21FastFieldValuePrinterESt14default_deleteIS4_EEERNSt13tuple_elementIXT_ESt5tupleIJDpT0_EEE4typeERSC_(ptr noundef nonnull align 8 dereferenceable(8) %0) #5 comdat {
  %2 = alloca ptr, align 8
  store ptr %0, ptr %2, align 8, !tbaa !528
  %3 = load ptr, ptr %2, align 8, !tbaa !528
  %4 = call noundef nonnull align 1 dereferenceable(1) ptr @_ZSt12__get_helperILm1ESt14default_deleteIKN6google8protobuf10TextFormat21FastFieldValuePrinterEEJEERT0_RSt11_Tuple_implIXT_EJS7_DpT1_EE(ptr noundef nonnull align 1 dereferenceable(1) %3) #3
  ret ptr %4
}

; Function Attrs: mustprogress nounwind uwtable
define linkonce_odr hidden noundef nonnull align 8 dereferenceable(8) ptr @_ZSt3getILm0EJPKN6google8protobuf10TextFormat21FastFieldValuePrinterESt14default_deleteIS4_EEERNSt13tuple_elementIXT_ESt5tupleIJDpT0_EEE4typeERSC_(ptr noundef nonnull align 8 dereferenceable(8) %0) #5 comdat {
  %2 = alloca ptr, align 8
  store ptr %0, ptr %2, align 8, !tbaa !528
  %3 = load ptr, ptr %2, align 8, !tbaa !528
  %4 = call noundef nonnull align 8 dereferenceable(8) ptr @_ZSt12__get_helperILm0EPKN6google8protobuf10TextFormat21FastFieldValuePrinterEJSt14default_deleteIS4_EEERT0_RSt11_Tuple_implIXT_EJS8_DpT1_EE(ptr noundef nonnull align 8 dereferenceable(8) %3) #3
  ret ptr %4
}

; Function Attrs: mustprogress nounwind uwtable
define linkonce_odr hidden noundef ptr @_ZN9__gnu_cxx16__aligned_membufISt4pairIKPKN6google8protobuf15FieldDescriptorESt10unique_ptrIKNS3_10TextFormat21FastFieldValuePrinterESt14default_deleteISB_EEEE7_M_addrEv(ptr noundef nonnull align 8 dereferenceable(16) %0) #5 comdat align 2 {
  %2 = alloca ptr, align 8
  store ptr %0, ptr %2, align 8, !tbaa !587
  %3 = load ptr, ptr %2, align 8
  %4 = getelementptr inbounds nuw %"struct.__gnu_cxx::__aligned_membuf.142", ptr %3, i32 0, i32 0
  ret ptr %4
}

; Function Attrs: mustprogress nounwind uwtable
define linkonce_odr hidden void @_ZNKSt14default_deleteIKN6google8protobuf10TextFormat21FastFieldValuePrinterEEclEPS4_(ptr noundef nonnull align 1 dereferenceable(1) %0, ptr noundef %1) #5 comdat align 2 {
  %3 = alloca ptr, align 8
  %4 = alloca ptr, align 8
  store ptr %0, ptr %3, align 8, !tbaa !689
  store ptr %1, ptr %4, align 8, !tbaa !180
  %5 = load ptr, ptr %4, align 8, !tbaa !180
  %6 = icmp eq ptr %5, null
  br i1 %6, label %11, label %7

7:                                                ; preds = %2
  %8 = load ptr, ptr %5, align 8, !tbaa !130
  %9 = getelementptr inbounds ptr, ptr %8, i64 1
  %10 = load ptr, ptr %9, align 8
  call void %10(ptr noundef nonnull align 8 dereferenceable(8) %5) #3
  br label %11

11:                                               ; preds = %7, %2
  ret void
}

; Function Attrs: mustprogress nounwind uwtable
define linkonce_odr hidden noundef nonnull align 1 dereferenceable(1) ptr @_ZNSt15__uniq_ptr_implIKN6google8protobuf10TextFormat21FastFieldValuePrinterESt14default_deleteIS4_EE10_M_deleterEv(ptr noundef nonnull align 8 dereferenceable(8) %0) #5 comdat align 2 {
  %2 = alloca ptr, align 8
  store ptr %0, ptr %2, align 8, !tbaa !526
  %3 = load ptr, ptr %2, align 8
  %4 = getelementptr inbounds nuw %"class.std::__uniq_ptr_impl", ptr %3, i32 0, i32 0
  %5 = call noundef nonnull align 1 dereferenceable(1) ptr @_ZSt3getILm1EJPKN6google8protobuf10TextFormat21FastFieldValuePrinterESt14default_deleteIS4_EEERNSt13tuple_elementIXT_ESt5tupleIJDpT0_EEE4typeERSC_(ptr noundef nonnull align 8 dereferenceable(8) %4) #3
  ret ptr %5
}

; Function Attrs: mustprogress nounwind uwtable
define linkonce_odr hidden noundef nonnull align 8 dereferenceable(8) ptr @_ZNSt15__uniq_ptr_implIKN6google8protobuf10TextFormat21FastFieldValuePrinterESt14default_deleteIS4_EE6_M_ptrEv(ptr noundef nonnull align 8 dereferenceable(8) %0) #5 comdat align 2 {
  %2 = alloca ptr, align 8
  store ptr %0, ptr %2, align 8, !tbaa !526
  %3 = load ptr, ptr %2, align 8
  %4 = getelementptr inbounds nuw %"class.std::__uniq_ptr_impl", ptr %3, i32 0, i32 0
  %5 = call noundef nonnull align 8 dereferenceable(8) ptr @_ZSt3getILm0EJPKN6google8protobuf10TextFormat21FastFieldValuePrinterESt14default_deleteIS4_EEERNSt13tuple_elementIXT_ESt5tupleIJDpT0_EEE4typeERSC_(ptr noundef nonnull align 8 dereferenceable(8) %4) #3
  ret ptr %5
}

; Function Attrs: mustprogress nounwind uwtable
define linkonce_odr hidden noundef ptr @_ZN9__gnu_cxx16__aligned_membufISt4pairIKPKN6google8protobuf15FieldDescriptorESt10unique_ptrIKNS3_10TextFormat21FastFieldValuePrinterESt14default_deleteISB_EEEE6_M_ptrEv(ptr noundef nonnull align 8 dereferenceable(16) %0) #5 comdat align 2 {
  %2 = alloca ptr, align 8
  store ptr %0, ptr %2, align 8, !tbaa !587
  %3 = load ptr, ptr %2, align 8
  %4 = call noundef ptr @_ZN9__gnu_cxx16__aligned_membufISt4pairIKPKN6google8protobuf15FieldDescriptorESt10unique_ptrIKNS3_10TextFormat21FastFieldValuePrinterESt14default_deleteISB_EEEE7_M_addrEv(ptr noundef nonnull align 8 dereferenceable(16) %3) #3
  ret ptr %4
}

; Function Attrs: mustprogress nounwind uwtable
define linkonce_odr hidden void @_ZNSt15__uniq_ptr_implIKN6google8protobuf10TextFormat21FastFieldValuePrinterESt14default_deleteIS4_EE5resetEPS4_(ptr noundef nonnull align 8 dereferenceable(8) %0, ptr noundef %1) #5 comdat align 2 {
  %3 = alloca ptr, align 8
  %4 = alloca ptr, align 8
  %5 = alloca ptr, align 8
  store ptr %0, ptr %3, align 8, !tbaa !526
  store ptr %1, ptr %4, align 8, !tbaa !180
  %6 = load ptr, ptr %3, align 8
  call void @llvm.lifetime.start.p0(i64 8, ptr %5) #3
  %7 = call noundef nonnull align 8 dereferenceable(8) ptr @_ZNSt15__uniq_ptr_implIKN6google8protobuf10TextFormat21FastFieldValuePrinterESt14default_deleteIS4_EE6_M_ptrEv(ptr noundef nonnull align 8 dereferenceable(8) %6) #3
  %8 = load ptr, ptr %7, align 8, !tbaa !180
  store ptr %8, ptr %5, align 8, !tbaa !180
  %9 = load ptr, ptr %4, align 8, !tbaa !180
  %10 = call noundef nonnull align 8 dereferenceable(8) ptr @_ZNSt15__uniq_ptr_implIKN6google8protobuf10TextFormat21FastFieldValuePrinterESt14default_deleteIS4_EE6_M_ptrEv(ptr noundef nonnull align 8 dereferenceable(8) %6) #3
  store ptr %9, ptr %10, align 8, !tbaa !180
  %11 = load ptr, ptr %5, align 8, !tbaa !180
  %12 = icmp ne ptr %11, null
  br i1 %12, label %13, label %16

13:                                               ; preds = %2
  %14 = call noundef nonnull align 1 dereferenceable(1) ptr @_ZNSt15__uniq_ptr_implIKN6google8protobuf10TextFormat21FastFieldValuePrinterESt14default_deleteIS4_EE10_M_deleterEv(ptr noundef nonnull align 8 dereferenceable(8) %6) #3
  %15 = load ptr, ptr %5, align 8, !tbaa !180
  call void @_ZNKSt14default_deleteIKN6google8protobuf10TextFormat21FastFieldValuePrinterEEclEPS4_(ptr noundef nonnull align 1 dereferenceable(1) %14, ptr noundef %15)
  br label %16

16:                                               ; preds = %13, %2
  call void @llvm.lifetime.end.p0(i64 8, ptr %5) #3
  ret void
}

; Function Attrs: mustprogress nounwind uwtable
define linkonce_odr hidden noundef ptr @_ZNSt13_Rb_tree_nodeISt4pairIKPKN6google8protobuf15FieldDescriptorESt10unique_ptrIKNS2_10TextFormat21FastFieldValuePrinterESt14default_deleteISA_EEEE9_M_valptrEv(ptr noundef nonnull align 8 dereferenceable(48) %0) #5 comdat align 2 {
  %2 = alloca ptr, align 8
  store ptr %0, ptr %2, align 8, !tbaa !582
  %3 = load ptr, ptr %2, align 8
  %4 = getelementptr inbounds nuw %"struct.std::_Rb_tree_node.141", ptr %3, i32 0, i32 1
  %5 = call noundef ptr @_ZN9__gnu_cxx16__aligned_membufISt4pairIKPKN6google8protobuf15FieldDescriptorESt10unique_ptrIKNS3_10TextFormat21FastFieldValuePrinterESt14default_deleteISB_EEEE6_M_ptrEv(ptr noundef nonnull align 8 dereferenceable(16) %4) #3
  ret ptr %5
}

; Function Attrs: mustprogress nounwind uwtable
define linkonce_odr hidden void @_ZNSt4pairIPKN6google8protobuf15FieldDescriptorEDnEC2IRS4_DnTnNSt9enable_ifIXaaclsr5_PCCPE22_MoveConstructiblePairIT_T0_EEclsr5_PCCPE30_ImplicitlyMoveConvertiblePairIS9_SA_EEEbE4typeELb1EEEOS9_OSA_(ptr noundef nonnull align 8 dereferenceable(16) %0, ptr noundef nonnull align 8 dereferenceable(8) %1, ptr noundef nonnull align 8 dereferenceable(8) %2) unnamed_addr #5 comdat align 2 {
  %4 = alloca ptr, align 8
  %5 = alloca ptr, align 8
  %6 = alloca ptr, align 8
  store ptr %0, ptr %4, align 8, !tbaa !235
  store ptr %1, ptr %5, align 8, !tbaa !62
  store ptr %2, ptr %6, align 8, !tbaa !237
  %7 = load ptr, ptr %4, align 8
  %8 = getelementptr inbounds nuw %"struct.std::pair.65", ptr %7, i32 0, i32 0
  %9 = load ptr, ptr %5, align 8, !tbaa !62
  %10 = load ptr, ptr %9, align 8, !tbaa !58
  store ptr %10, ptr %8, align 8, !tbaa !611
  %11 = getelementptr inbounds nuw %"struct.std::pair.65", ptr %7, i32 0, i32 1
  store ptr null, ptr %11, align 8, !tbaa !613
  ret void
}

; Function Attrs: mustprogress nounwind uwtable
define linkonce_odr hidden void @_ZNSt10unique_ptrIKN6google8protobuf10TextFormat21FastFieldValuePrinterESt14default_deleteIS4_EE5resetEPS4_(ptr noundef nonnull align 8 dereferenceable(8) %0, ptr noundef %1) #5 comdat align 2 {
  %3 = alloca ptr, align 8
  %4 = alloca ptr, align 8
  store ptr %0, ptr %3, align 8, !tbaa !214
  store ptr %1, ptr %4, align 8, !tbaa !180
  %5 = load ptr, ptr %3, align 8
  %6 = getelementptr inbounds nuw %"class.std::unique_ptr", ptr %5, i32 0, i32 0
  %7 = load ptr, ptr %4, align 8, !tbaa !180
  call void @_ZNSt15__uniq_ptr_implIKN6google8protobuf10TextFormat21FastFieldValuePrinterESt14default_deleteIS4_EE5resetEPS4_(ptr noundef nonnull align 8 dereferenceable(8) %6, ptr noundef %7) #3
  ret void
}

; Function Attrs: mustprogress nounwind uwtable
define linkonce_odr hidden noundef ptr @_ZNKSt17_Rb_tree_iteratorISt4pairIKPKN6google8protobuf15FieldDescriptorESt10unique_ptrIKNS2_10TextFormat21FastFieldValuePrinterESt14default_deleteISA_EEEEptEv(ptr noundef nonnull align 8 dereferenceable(8) %0) #5 comdat align 2 {
  %2 = alloca ptr, align 8
  store ptr %0, ptr %2, align 8, !tbaa !239
  %3 = load ptr, ptr %2, align 8
  %4 = getelementptr inbounds nuw %"struct.std::_Rb_tree_iterator", ptr %3, i32 0, i32 0
  %5 = load ptr, ptr %4, align 8, !tbaa !241
  %6 = call noundef ptr @_ZNSt13_Rb_tree_nodeISt4pairIKPKN6google8protobuf15FieldDescriptorESt10unique_ptrIKNS2_10TextFormat21FastFieldValuePrinterESt14default_deleteISA_EEEE9_M_valptrEv(ptr noundef nonnull align 8 dereferenceable(48) %5)
  ret ptr %6
}

; Function Attrs: mustprogress uwtable
define linkonce_odr hidden { ptr, i8 } @_ZNSt3mapIPKN6google8protobuf15FieldDescriptorESt10unique_ptrIKNS1_10TextFormat21FastFieldValuePrinterESt14default_deleteIS8_EESt4lessIS4_ESaISt4pairIKS4_SB_EEE6insertISE_IS4_DnEEENSt9enable_ifIXsr16is_constructibleISG_T_EE5valueESE_ISt17_Rb_tree_iteratorISG_EbEE4typeEOSM_(ptr noundef nonnull align 8 dereferenceable(48) %0, ptr noundef nonnull align 8 dereferenceable(16) %1) #4 comdat align 2 {
  %3 = alloca %"struct.std::pair.63", align 8
  %4 = alloca ptr, align 8
  %5 = alloca ptr, align 8
  %6 = alloca { ptr, i8 }, align 8
  store ptr %0, ptr %4, align 8, !tbaa !216
  store ptr %1, ptr %5, align 8, !tbaa !235
  %7 = load ptr, ptr %4, align 8
  %8 = getelementptr inbounds nuw %"class.std::map", ptr %7, i32 0, i32 0
  %9 = load ptr, ptr %5, align 8, !tbaa !235
  %10 = call { ptr, i8 } @_ZNSt8_Rb_treeIPKN6google8protobuf15FieldDescriptorESt4pairIKS4_St10unique_ptrIKNS1_10TextFormat21FastFieldValuePrinterESt14default_deleteISA_EEESt10_Select1stISE_ESt4lessIS4_ESaISE_EE17_M_emplace_uniqueIJS5_IS4_DnEEEES5_ISt17_Rb_tree_iteratorISE_EbEDpOT_(ptr noundef nonnull align 8 dereferenceable(48) %8, ptr noundef nonnull align 8 dereferenceable(16) %9)
  store { ptr, i8 } %10, ptr %6, align 8
  call void @llvm.memcpy.p0.p0.i64(ptr align 8 %3, ptr align 8 %6, i64 9, i1 false)
  %11 = load { ptr, i8 }, ptr %3, align 8
  ret { ptr, i8 } %11
}

; Function Attrs: mustprogress uwtable
define linkonce_odr hidden void @_ZSt9make_pairIRPKN6google8protobuf15FieldDescriptorEDnESt4pairINSt25__strip_reference_wrapperINSt5decayIT_E4typeEE6__typeENS7_INS8_IT0_E4typeEE6__typeEEOS9_OSE_(ptr dead_on_unwind noalias writable sret(%"struct.std::pair.65") align 8 %0, ptr noundef nonnull align 8 dereferenceable(8) %1, ptr noundef nonnull align 8 dereferenceable(8) %2) #4 comdat {
  %4 = alloca ptr, align 8
  %5 = alloca ptr, align 8
  store ptr %1, ptr %4, align 8, !tbaa !62
  store ptr %2, ptr %5, align 8, !tbaa !237
  %6 = load ptr, ptr %4, align 8, !tbaa !62
  %7 = load ptr, ptr %5, align 8, !tbaa !237
  call void @_ZNSt4pairIPKN6google8protobuf15FieldDescriptorEDnEC2IRS4_DnTnNSt9enable_ifIXaaclsr5_PCCPE22_MoveConstructiblePairIT_T0_EEclsr5_PCCPE30_ImplicitlyMoveConvertiblePairIS9_SA_EEEbE4typeELb1EEEOS9_OSA_(ptr noundef nonnull align 8 dereferenceable(16) %0, ptr noundef nonnull align 8 dereferenceable(8) %6, ptr noundef nonnull align 8 dereferenceable(8) %7)
  ret void
}

; Function Attrs: mustprogress uwtable
define hidden noundef zeroext i1 @_ZN6google8protobuf10TextFormat7Printer25RegisterFieldValuePrinterEPKNS0_15FieldDescriptorEPKNS1_21FastFieldValuePrinterE(ptr noundef nonnull align 8 dereferenceable(136) %0, ptr noundef %1, ptr noundef %2) #4 align 2 {
  %4 = alloca i1, align 1
  %5 = alloca ptr, align 8
  %6 = alloca ptr, align 8
  %7 = alloca ptr, align 8
  %8 = alloca %"struct.std::pair.63", align 8
  %9 = alloca %"struct.std::pair.65", align 8
  %10 = alloca ptr, align 8
  %11 = alloca { ptr, i8 }, align 8
  %12 = alloca i32, align 4
  store ptr %0, ptr %5, align 8, !tbaa !10
  store ptr %1, ptr %6, align 8, !tbaa !58
  store ptr %2, ptr %7, align 8, !tbaa !180
  %13 = load ptr, ptr %5, align 8
  %14 = load ptr, ptr %6, align 8, !tbaa !58
  %15 = icmp eq ptr %14, null
  br i1 %15, label %19, label %16

16:                                               ; preds = %3
  %17 = load ptr, ptr %7, align 8, !tbaa !180
  %18 = icmp eq ptr %17, null
  br i1 %18, label %19, label %20

19:                                               ; preds = %16, %3
  store i1 false, ptr %4, align 1
  br label %33

20:                                               ; preds = %16
  call void @llvm.lifetime.start.p0(i64 16, ptr %8) #3
  %21 = getelementptr inbounds nuw %"class.google::protobuf::TextFormat::Printer", ptr %13, i32 0, i32 10
  call void @llvm.lifetime.start.p0(i64 16, ptr %9) #3
  call void @llvm.lifetime.start.p0(i64 8, ptr %10) #3
  store ptr null, ptr %10, align 8, !tbaa !228
  call void @_ZSt9make_pairIRPKN6google8protobuf15FieldDescriptorEDnESt4pairINSt25__strip_reference_wrapperINSt5decayIT_E4typeEE6__typeENS7_INS8_IT0_E4typeEE6__typeEEOS9_OSE_(ptr dead_on_unwind writable sret(%"struct.std::pair.65") align 8 %9, ptr noundef nonnull align 8 dereferenceable(8) %6, ptr noundef nonnull align 8 dereferenceable(8) %10)
  %22 = call { ptr, i8 } @_ZNSt3mapIPKN6google8protobuf15FieldDescriptorESt10unique_ptrIKNS1_10TextFormat21FastFieldValuePrinterESt14default_deleteIS8_EESt4lessIS4_ESaISt4pairIKS4_SB_EEE6insertISE_IS4_DnEEENSt9enable_ifIXsr16is_constructibleISG_T_EE5valueESE_ISt17_Rb_tree_iteratorISG_EbEE4typeEOSM_(ptr noundef nonnull align 8 dereferenceable(48) %21, ptr noundef nonnull align 8 dereferenceable(16) %9)
  store { ptr, i8 } %22, ptr %11, align 8
  call void @llvm.memcpy.p0.p0.i64(ptr align 8 %8, ptr align 8 %11, i64 9, i1 false)
  call void @llvm.lifetime.end.p0(i64 8, ptr %10) #3
  call void @llvm.lifetime.end.p0(i64 16, ptr %9) #3
  %23 = getelementptr inbounds nuw %"struct.std::pair.63", ptr %8, i32 0, i32 1
  %24 = load i8, ptr %23, align 8, !tbaa !230, !range !14, !noundef !15
  %25 = trunc i8 %24 to i1
  br i1 %25, label %26, label %31

26:                                               ; preds = %20
  %27 = getelementptr inbounds nuw %"struct.std::pair.63", ptr %8, i32 0, i32 0
  %28 = call noundef ptr @_ZNKSt17_Rb_tree_iteratorISt4pairIKPKN6google8protobuf15FieldDescriptorESt10unique_ptrIKNS2_10TextFormat21FastFieldValuePrinterESt14default_deleteISA_EEEEptEv(ptr noundef nonnull align 8 dereferenceable(8) %27) #3
  %29 = getelementptr inbounds nuw %"struct.std::pair.67", ptr %28, i32 0, i32 1
  %30 = load ptr, ptr %7, align 8, !tbaa !180
  call void @_ZNSt10unique_ptrIKN6google8protobuf10TextFormat21FastFieldValuePrinterESt14default_deleteIS4_EE5resetEPS4_(ptr noundef nonnull align 8 dereferenceable(8) %29, ptr noundef %30) #3
  store i1 true, ptr %4, align 1
  store i32 1, ptr %12, align 4
  br label %32

31:                                               ; preds = %20
  store i1 false, ptr %4, align 1
  store i32 1, ptr %12, align 4
  br label %32

32:                                               ; preds = %31, %26
  call void @llvm.lifetime.end.p0(i64 16, ptr %8) #3
  br label %33

33:                                               ; preds = %32, %19
  %34 = load i1, ptr %4, align 1
  ret i1 %34
}