; Function Attrs: mustprogress uwtable
define hidden noundef zeroext i1 @_ZN6google8protobuf10TextFormat7Printer25RegisterFieldValuePrinterEPKNS0_15FieldDescriptorEPKNS1_21FastFieldValuePrinterE(ptr noundef nonnull align 8 dereferenceable(136) %0, ptr noundef %1, ptr noundef %2) local_unnamed_addr #3 align 2 {
  %4 = alloca %"struct.std::pair.65", align 8
  %5 = icmp eq ptr %1, null
  %6 = icmp eq ptr %2, null
  %or.cond = or i1 %5, %6
  br i1 %or.cond, label %_ZNSt10unique_ptrIKN6google8protobuf10TextFormat21FastFieldValuePrinterESt14default_deleteIS4_EE5resetEPS4_.exit, label %7

7:                                                ; preds = %3
  %8 = getelementptr inbounds nuw i8, ptr %0, i64 32
  call void @llvm.lifetime.start.p0(i64 16, ptr nonnull %4) #31
  store ptr %1, ptr %4, align 8, !tbaa !216, !alias.scope !223
  %9 = getelementptr inbounds nuw i8, ptr %4, i64 8
  store ptr null, ptr %9, align 8, !tbaa !222, !alias.scope !223
  %10 = call { ptr, i8 } @_ZNSt8_Rb_treeIPKN6google8protobuf15FieldDescriptorESt4pairIKS4_St10unique_ptrIKNS1_10TextFormat21FastFieldValuePrinterESt14default_deleteISA_EEESt10_Select1stISE_ESt4lessIS4_ESaISE_EE17_M_emplace_uniqueIJS5_IS4_DnEEEES5_ISt17_Rb_tree_iteratorISE_EbEDpOT_(ptr noundef nonnull align 8 dereferenceable(48) %8, ptr noundef nonnull align 8 dereferenceable(16) %4)
  %.fca.1.extract = extractvalue { ptr, i8 } %10, 1
  call void @llvm.lifetime.end.p0(i64 16, ptr nonnull %4) #31
  %11 = trunc nuw i8 %.fca.1.extract to i1
  br i1 %11, label %12, label %_ZNSt10unique_ptrIKN6google8protobuf10TextFormat21FastFieldValuePrinterESt14default_deleteIS4_EE5resetEPS4_.exit

12:                                               ; preds = %7
  %.fca.0.extract = extractvalue { ptr, i8 } %10, 0
  %13 = getelementptr inbounds nuw i8, ptr %.fca.0.extract, i64 40
  %14 = load ptr, ptr %13, align 8, !tbaa !22
  store ptr %2, ptr %13, align 8, !tbaa !22
  %.not.i.i = icmp eq ptr %14, null
  br i1 %.not.i.i, label %_ZNSt10unique_ptrIKN6google8protobuf10TextFormat21FastFieldValuePrinterESt14default_deleteIS4_EE5resetEPS4_.exit, label %_ZNKSt14default_deleteIKN6google8protobuf10TextFormat21FastFieldValuePrinterEEclEPS4_.exit.i.i

_ZNKSt14default_deleteIKN6google8protobuf10TextFormat21FastFieldValuePrinterEEclEPS4_.exit.i.i: ; preds = %12
  %15 = load ptr, ptr %14, align 8, !tbaa !24
  %16 = getelementptr inbounds nuw i8, ptr %15, i64 8
  %17 = load ptr, ptr %16, align 8
  call void %17(ptr noundef nonnull align 8 dereferenceable(8) %14) #31
  br label %_ZNSt10unique_ptrIKN6google8protobuf10TextFormat21FastFieldValuePrinterESt14default_deleteIS4_EE5resetEPS4_.exit

_ZNSt10unique_ptrIKN6google8protobuf10TextFormat21FastFieldValuePrinterESt14default_deleteIS4_EE5resetEPS4_.exit: ; preds = %7, %12, %_ZNKSt14default_deleteIKN6google8protobuf10TextFormat21FastFieldValuePrinterEEclEPS4_.exit.i.i, %3
  %.0 = phi i1 [ false, %3 ], [ true, %_ZNKSt14default_deleteIKN6google8protobuf10TextFormat21FastFieldValuePrinterEEclEPS4_.exit.i.i ], [ true, %12 ], [ false, %7 ]
  ret i1 %.0
}